; Function Attrs: mustprogress uwtable
define void @_ZN2cv5aruco15CharucoDetector8setBoardERKNS0_12CharucoBoardE(ptr nocapture noundef nonnull readonly align 8 dereferenceable(24) %0, ptr noundef nonnull align 8 dereferenceable(16) %1) local_unnamed_addr #3 align 2 personality ptr @__gxx_personality_v0 {
  %3 = getelementptr inbounds i8, ptr %0, i64 8
  %4 = load ptr, ptr %3, align 8
  %5 = load ptr, ptr %1, align 8
  store ptr %5, ptr %4, align 8
  %6 = getelementptr inbounds i8, ptr %4, i64 8
  %7 = getelementptr inbounds i8, ptr %1, i64 8
  %8 = load ptr, ptr %7, align 8
  %9 = load ptr, ptr %6, align 8
  %.not.i.i.i.i.i.i = icmp eq ptr %8, %9
  br i1 %.not.i.i.i.i.i.i, label %_ZN2cv5aruco12CharucoBoardaSERKS1_.exit, label %10

10:                                               ; preds = %2
  %.not7.i.i.i.i.i.i = icmp eq ptr %8, null
  br i1 %.not7.i.i.i.i.i.i, label %_ZNSt16_Sp_counted_baseILN9__gnu_cxx12_Lock_policyE2EE15_M_add_ref_copyEv.exit.i.i.i.i.i.i, label %11

11:                                               ; preds = %10
  %12 = getelementptr inbounds i8, ptr %8, i64 8
  %13 = load i8, ptr @__libc_single_threaded, align 1
  %.not.i.i.i.i.i.i.i = icmp eq i8 %13, 0
  br i1 %.not.i.i.i.i.i.i.i, label %17, label %14

14:                                               ; preds = %11
  %15 = load i32, ptr %12, align 4
  %16 = add nsw i32 %15, 1
  store i32 %16, ptr %12, align 4
  br label %_ZNSt16_Sp_counted_baseILN9__gnu_cxx12_Lock_policyE2EE15_M_add_ref_copyEv.exitthread-pre-split.i.i.i.i.i.i

17:                                               ; preds = %11
  %18 = atomicrmw volatile add ptr %12, i32 1 acq_rel, align 4
  br label %_ZNSt16_Sp_counted_baseILN9__gnu_cxx12_Lock_policyE2EE15_M_add_ref_copyEv.exitthread-pre-split.i.i.i.i.i.i

_ZNSt16_Sp_counted_baseILN9__gnu_cxx12_Lock_policyE2EE15_M_add_ref_copyEv.exitthread-pre-split.i.i.i.i.i.i: ; preds = %17, %14
  %.pr.i.i.i.i.i.i = load ptr, ptr %6, align 8
  br label %_ZNSt16_Sp_counted_baseILN9__gnu_cxx12_Lock_policyE2EE15_M_add_ref_copyEv.exit.i.i.i.i.i.i

_ZNSt16_Sp_counted_baseILN9__gnu_cxx12_Lock_policyE2EE15_M_add_ref_copyEv.exit.i.i.i.i.i.i: ; preds = %_ZNSt16_Sp_counted_baseILN9__gnu_cxx12_Lock_policyE2EE15_M_add_ref_copyEv.exitthread-pre-split.i.i.i.i.i.i, %10
  %19 = phi ptr [ %.pr.i.i.i.i.i.i, %_ZNSt16_Sp_counted_baseILN9__gnu_cxx12_Lock_policyE2EE15_M_add_ref_copyEv.exitthread-pre-split.i.i.i.i.i.i ], [ %9, %10 ]
  %.not8.i.i.i.i.i.i = icmp eq ptr %19, null
  br i1 %.not8.i.i.i.i.i.i, label %_ZNSt16_Sp_counted_baseILN9__gnu_cxx12_Lock_policyE2EE10_M_releaseEv.exit.i.i.i.i.i.i, label %20

20:                                               ; preds = %_ZNSt16_Sp_counted_baseILN9__gnu_cxx12_Lock_policyE2EE15_M_add_ref_copyEv.exit.i.i.i.i.i.i
  %21 = getelementptr inbounds i8, ptr %19, i64 8
  %22 = load atomic i64, ptr %21 acquire, align 8
  %23 = icmp eq i64 %22, 4294967297
  %24 = trunc i64 %22 to i32
  br i1 %23, label %25, label %30

25:                                               ; preds = %20
  store i32 0, ptr %21, align 8
  %26 = getelementptr inbounds i8, ptr %19, i64 12
  store i32 0, ptr %26, align 4
  %27 = load ptr, ptr %19, align 8
  %28 = getelementptr inbounds i8, ptr %27, i64 16
  %29 = load ptr, ptr %28, align 8
  tail call void %29(ptr noundef nonnull align 8 dereferenceable(16) %19) #25
  br label %_ZNSt16_Sp_counted_baseILN9__gnu_cxx12_Lock_policyE2EE24_M_release_last_use_coldEv.exit.sink.split.i.i.i.i.i.i.i

30:                                               ; preds = %20
  %31 = load i8, ptr @__libc_single_threaded, align 1
  %.not.i9.i.i.i.i.i.i = icmp eq i8 %31, 0
  br i1 %.not.i9.i.i.i.i.i.i, label %34, label %32

32:                                               ; preds = %30
  %33 = add nsw i32 %24, -1
  store i32 %33, ptr %21, align 4
  br label %36

34:                                               ; preds = %30
  %35 = atomicrmw volatile add ptr %21, i32 -1 acq_rel, align 4
  br label %36

36:                                               ; preds = %34, %32
  %.0.i.i.i.i.i.i.i = phi i32 [ %24, %32 ], [ %35, %34 ]
  %37 = icmp eq i32 %.0.i.i.i.i.i.i.i, 1
  br i1 %37, label %38, label %_ZNSt16_Sp_counted_baseILN9__gnu_cxx12_Lock_policyE2EE10_M_releaseEv.exit.i.i.i.i.i.i

38:                                               ; preds = %36
  %39 = load ptr, ptr %19, align 8
  %40 = getelementptr inbounds i8, ptr %39, i64 16
  %41 = load ptr, ptr %40, align 8
  tail call void %41(ptr noundef nonnull align 8 dereferenceable(16) %19) #25
  %42 = getelementptr inbounds i8, ptr %19, i64 12
  %43 = load i8, ptr @__libc_single_threaded, align 1
  %.not.i.i.i.i.i.i.i.i.i = icmp eq i8 %43, 0
  br i1 %.not.i.i.i.i.i.i.i.i.i, label %47, label %44

44:                                               ; preds = %38
  %45 = load i32, ptr %42, align 4
  %46 = add nsw i32 %45, -1
  store i32 %46, ptr %42, align 4
  br label %49

47:                                               ; preds = %38
  %48 = atomicrmw volatile add ptr %42, i32 -1 acq_rel, align 4
  br label %49

49:                                               ; preds = %47, %44
  %.0.i.i.i.i.i.i.i.i.i = phi i32 [ %45, %44 ], [ %48, %47 ]
  %50 = icmp eq i32 %.0.i.i.i.i.i.i.i.i.i, 1
  br i1 %50, label %_ZNSt16_Sp_counted_baseILN9__gnu_cxx12_Lock_policyE2EE24_M_release_last_use_coldEv.exit.sink.split.i.i.i.i.i.i.i, label %_ZNSt16_Sp_counted_baseILN9__gnu_cxx12_Lock_policyE2EE10_M_releaseEv.exit.i.i.i.i.i.i

_ZNSt16_Sp_counted_baseILN9__gnu_cxx12_Lock_policyE2EE24_M_release_last_use_coldEv.exit.sink.split.i.i.i.i.i.i.i: ; preds = %49, %25
  %51 = load ptr, ptr %19, align 8
  %52 = getelementptr inbounds i8, ptr %51, i64 24
  %53 = load ptr, ptr %52, align 8
  tail call void %53(ptr noundef nonnull align 8 dereferenceable(16) %19) #25
  br label %_ZNSt16_Sp_counted_baseILN9__gnu_cxx12_Lock_policyE2EE10_M_releaseEv.exit.i.i.i.i.i.i

_ZNSt16_Sp_counted_baseILN9__gnu_cxx12_Lock_policyE2EE10_M_releaseEv.exit.i.i.i.i.i.i: ; preds = %_ZNSt16_Sp_counted_baseILN9__gnu_cxx12_Lock_policyE2EE24_M_release_last_use_coldEv.exit.sink.split.i.i.i.i.i.i.i, %49, %36, %_ZNSt16_Sp_counted_baseILN9__gnu_cxx12_Lock_policyE2EE15_M_add_ref_copyEv.exit.i.i.i.i.i.i
  store ptr %8, ptr %6, align 8
  br label %_ZN2cv5aruco12CharucoBoardaSERKS1_.exit

_ZN2cv5aruco12CharucoBoardaSERKS1_.exit:          ; preds = %2, %_ZNSt16_Sp_counted_baseILN9__gnu_cxx12_Lock_policyE2EE10_M_releaseEv.exit.i.i.i.i.i.i
  %54 = load ptr, ptr %3, align 8
  %55 = getelementptr inbounds i8, ptr %54, i64 216
  %56 = tail call noundef nonnull align 8 dereferenceable(104) ptr @_ZNK2cv5aruco5Board13getDictionaryEv(ptr noundef nonnull align 8 dereferenceable(16) %1)
  tail call void @_ZN2cv5aruco13ArucoDetector13setDictionaryERKNS0_10DictionaryE(ptr noundef nonnull align 8 dereferenceable(24) %55, ptr noundef nonnull align 8 dereferenceable(104) %56)
  ret void
}